target datalayout = "e-m:e-p270:32:32-p271:32:32-p272:64:64-i64:64-i128:128-f80:128-n8:16:32:64-S128"
target triple = "x86_64-pc-linux-gnu"

%struct.nghttp2_option = type { i64, i64, i64, i64, i64, i64, i64, i32, i32, i32, i32, i32, i32, i32, i32, i32, i32, i32, [32 x i8] }

; Function Attrs: nounwind uwtable
define void @nghttp2_option_set_max_outbound_ack(ptr noundef %0, i64 noundef %1) #0 {
  %3 = alloca ptr, align 8
  %4 = alloca i64, align 8
  store ptr %0, ptr %3, align 8, !tbaa !9
  store i64 %1, ptr %4, align 8, !tbaa !26
  %5 = load ptr, ptr %3, align 8, !tbaa !9
  %6 = getelementptr inbounds nuw %struct.nghttp2_option, ptr %5, i32 0, i32 7
  %7 = load i32, ptr %6, align 8, !tbaa !13
  %8 = or i32 %7, 2048
  store i32 %8, ptr %6, align 8, !tbaa !13
  %9 = load i64, ptr %4, align 8, !tbaa !26
  %10 = load ptr, ptr %3, align 8, !tbaa !9
  %11 = getelementptr inbounds nuw %struct.nghttp2_option, ptr %10, i32 0, i32 4
  store i64 %9, ptr %11, align 8, !tbaa !30
  ret void
}